target datalayout = "e-m:e-p270:32:32-p271:32:32-p272:64:64-i64:64-i128:128-f80:128-n8:16:32:64-S128"
target triple = "x86_64-pc-linux-gnu"

; Function Attrs: nounwind uwtable
define i64 @SPARC_Convert(ptr noundef %0, i64 noundef %1, i32 noundef %2, i32 noundef %3) #0 {
  %5 = alloca i64, align 8
  %6 = alloca ptr, align 8
  %7 = alloca i64, align 8
  %8 = alloca i32, align 4
  %9 = alloca i32, align 4
  %10 = alloca i32, align 4
  %11 = alloca i32, align 4
  %12 = alloca i32, align 4
  %13 = alloca i32, align 4
  store ptr %0, ptr %6, align 8, !tbaa !3
  store i64 %1, ptr %7, align 8, !tbaa !8
  store i32 %2, ptr %8, align 4, !tbaa !10
  store i32 %3, ptr %9, align 4, !tbaa !10
  call void @llvm.lifetime.start.p0(i64 4, ptr %10) #2
  %14 = load i64, ptr %7, align 8, !tbaa !8
  %15 = icmp ult i64 %14, 4
  br i1 %15, label %16, label %17

16:                                               ; preds = %4
  store i64 0, ptr %5, align 8
  store i32 1, ptr %11, align 4
  br label %163

17:                                               ; preds = %4
  %18 = load i64, ptr %7, align 8, !tbaa !8
  %19 = sub i64 %18, 4
  store i64 %19, ptr %7, align 8, !tbaa !8
  store i32 0, ptr %10, align 4, !tbaa !10
  br label %20

20:                                               ; preds = %157, %17
  %21 = load i32, ptr %10, align 4, !tbaa !10
  %22 = zext i32 %21 to i64
  %23 = load i64, ptr %7, align 8, !tbaa !8
  %24 = icmp ule i64 %22, %23
  br i1 %24, label %25, label %160

25:                                               ; preds = %20
  %26 = load ptr, ptr %6, align 8, !tbaa !3
  %27 = load i32, ptr %10, align 4, !tbaa !10
  %28 = zext i32 %27 to i64
  %29 = getelementptr inbounds nuw i8, ptr %26, i64 %28
  %30 = load i8, ptr %29, align 1, !tbaa !12
  %31 = zext i8 %30 to i32
  %32 = icmp eq i32 %31, 64
  br i1 %32, label %33, label %43

33:                                               ; preds = %25
  %34 = load ptr, ptr %6, align 8, !tbaa !3
  %35 = load i32, ptr %10, align 4, !tbaa !10
  %36 = add i32 %35, 1
  %37 = zext i32 %36 to i64
  %38 = getelementptr inbounds nuw i8, ptr %34, i64 %37
  %39 = load i8, ptr %38, align 1, !tbaa !12
  %40 = zext i8 %39 to i32
  %41 = and i32 %40, 192
  %42 = icmp eq i32 %41, 0
  br i1 %42, label %61, label %43

43:                                               ; preds = %33, %25
  %44 = load ptr, ptr %6, align 8, !tbaa !3
  %45 = load i32, ptr %10, align 4, !tbaa !10
  %46 = zext i32 %45 to i64
  %47 = getelementptr inbounds nuw i8, ptr %44, i64 %46
  %48 = load i8, ptr %47, align 1, !tbaa !12
  %49 = zext i8 %48 to i32
  %50 = icmp eq i32 %49, 127
  br i1 %50, label %51, label %156

51:                                               ; preds = %43
  %52 = load ptr, ptr %6, align 8, !tbaa !3
  %53 = load i32, ptr %10, align 4, !tbaa !10
  %54 = add i32 %53, 1
  %55 = zext i32 %54 to i64
  %56 = getelementptr inbounds nuw i8, ptr %52, i64 %55
  %57 = load i8, ptr %56, align 1, !tbaa !12
  %58 = zext i8 %57 to i32
  %59 = and i32 %58, 192
  %60 = icmp eq i32 %59, 192
  br i1 %60, label %61, label %156

61:                                               ; preds = %51, %33
  call void @llvm.lifetime.start.p0(i64 4, ptr %12) #2
  %62 = load ptr, ptr %6, align 8, !tbaa !3
  %63 = load i32, ptr %10, align 4, !tbaa !10
  %64 = add i32 %63, 0
  %65 = zext i32 %64 to i64
  %66 = getelementptr inbounds nuw i8, ptr %62, i64 %65
  %67 = load i8, ptr %66, align 1, !tbaa !12
  %68 = zext i8 %67 to i32
  %69 = shl i32 %68, 24
  %70 = load ptr, ptr %6, align 8, !tbaa !3
  %71 = load i32, ptr %10, align 4, !tbaa !10
  %72 = add i32 %71, 1
  %73 = zext i32 %72 to i64
  %74 = getelementptr inbounds nuw i8, ptr %70, i64 %73
  %75 = load i8, ptr %74, align 1, !tbaa !12
  %76 = zext i8 %75 to i32
  %77 = shl i32 %76, 16
  %78 = or i32 %69, %77
  %79 = load ptr, ptr %6, align 8, !tbaa !3
  %80 = load i32, ptr %10, align 4, !tbaa !10
  %81 = add i32 %80, 2
  %82 = zext i32 %81 to i64
  %83 = getelementptr inbounds nuw i8, ptr %79, i64 %82
  %84 = load i8, ptr %83, align 1, !tbaa !12
  %85 = zext i8 %84 to i32
  %86 = shl i32 %85, 8
  %87 = or i32 %78, %86
  %88 = load ptr, ptr %6, align 8, !tbaa !3
  %89 = load i32, ptr %10, align 4, !tbaa !10
  %90 = add i32 %89, 3
  %91 = zext i32 %90 to i64
  %92 = getelementptr inbounds nuw i8, ptr %88, i64 %91
  %93 = load i8, ptr %92, align 1, !tbaa !12
  %94 = zext i8 %93 to i32
  %95 = or i32 %87, %94
  store i32 %95, ptr %12, align 4, !tbaa !10
  call void @llvm.lifetime.start.p0(i64 4, ptr %13) #2
  %96 = load i32, ptr %12, align 4, !tbaa !10
  %97 = shl i32 %96, 2
  store i32 %97, ptr %12, align 4, !tbaa !10
  %98 = load i32, ptr %9, align 4, !tbaa !10
  %99 = icmp ne i32 %98, 0
  br i1 %99, label %100, label %106

100:                                              ; preds = %61
  %101 = load i32, ptr %8, align 4, !tbaa !10
  %102 = load i32, ptr %10, align 4, !tbaa !10
  %103 = add i32 %101, %102
  %104 = load i32, ptr %12, align 4, !tbaa !10
  %105 = add i32 %103, %104
  store i32 %105, ptr %13, align 4, !tbaa !10
  br label %112

106:                                              ; preds = %61
  %107 = load i32, ptr %12, align 4, !tbaa !10
  %108 = load i32, ptr %8, align 4, !tbaa !10
  %109 = load i32, ptr %10, align 4, !tbaa !10
  %110 = add i32 %108, %109
  %111 = sub i32 %107, %110
  store i32 %111, ptr %13, align 4, !tbaa !10
  br label %112

112:                                              ; preds = %106, %100
  %113 = load i32, ptr %13, align 4, !tbaa !10
  %114 = lshr i32 %113, 2
  store i32 %114, ptr %13, align 4, !tbaa !10
  %115 = load i32, ptr %13, align 4, !tbaa !10
  %116 = lshr i32 %115, 22
  %117 = and i32 %116, 1
  %118 = sub i32 0, %117
  %119 = shl i32 %118, 22
  %120 = and i32 %119, 1073741823
  %121 = load i32, ptr %13, align 4, !tbaa !10
  %122 = and i32 %121, 4194303
  %123 = or i32 %120, %122
  %124 = or i32 %123, 1073741824
  store i32 %124, ptr %13, align 4, !tbaa !10
  %125 = load i32, ptr %13, align 4, !tbaa !10
  %126 = lshr i32 %125, 24
  %127 = trunc i32 %126 to i8
  %128 = load ptr, ptr %6, align 8, !tbaa !3
  %129 = load i32, ptr %10, align 4, !tbaa !10
  %130 = add i32 %129, 0
  %131 = zext i32 %130 to i64
  %132 = getelementptr inbounds nuw i8, ptr %128, i64 %131
  store i8 %127, ptr %132, align 1, !tbaa !12
  %133 = load i32, ptr %13, align 4, !tbaa !10
  %134 = lshr i32 %133, 16
  %135 = trunc i32 %134 to i8
  %136 = load ptr, ptr %6, align 8, !tbaa !3
  %137 = load i32, ptr %10, align 4, !tbaa !10
  %138 = add i32 %137, 1
  %139 = zext i32 %138 to i64
  %140 = getelementptr inbounds nuw i8, ptr %136, i64 %139
  store i8 %135, ptr %140, align 1, !tbaa !12
  %141 = load i32, ptr %13, align 4, !tbaa !10
  %142 = lshr i32 %141, 8
  %143 = trunc i32 %142 to i8
  %144 = load ptr, ptr %6, align 8, !tbaa !3
  %145 = load i32, ptr %10, align 4, !tbaa !10
  %146 = add i32 %145, 2
  %147 = zext i32 %146 to i64
  %148 = getelementptr inbounds nuw i8, ptr %144, i64 %147
  store i8 %143, ptr %148, align 1, !tbaa !12
  %149 = load i32, ptr %13, align 4, !tbaa !10
  %150 = trunc i32 %149 to i8
  %151 = load ptr, ptr %6, align 8, !tbaa !3
  %152 = load i32, ptr %10, align 4, !tbaa !10
  %153 = add i32 %152, 3
  %154 = zext i32 %153 to i64
  %155 = getelementptr inbounds nuw i8, ptr %151, i64 %154
  store i8 %150, ptr %155, align 1, !tbaa !12
  call void @llvm.lifetime.end.p0(i64 4, ptr %13) #2
  call void @llvm.lifetime.end.p0(i64 4, ptr %12) #2
  br label %156

156:                                              ; preds = %112, %51, %43
  br label %157

157:                                              ; preds = %156
  %158 = load i32, ptr %10, align 4, !tbaa !10
  %159 = add i32 %158, 4
  store i32 %159, ptr %10, align 4, !tbaa !10
  br label %20

160:                                              ; preds = %20
  %161 = load i32, ptr %10, align 4, !tbaa !10
  %162 = zext i32 %161 to i64
  store i64 %162, ptr %5, align 8
  store i32 1, ptr %11, align 4
  br label %163

163:                                              ; preds = %160, %16
  call void @llvm.lifetime.end.p0(i64 4, ptr %10) #2
  %164 = load i64, ptr %5, align 8
  ret i64 %164
}