; Function Attrs: nofree norecurse nosync nounwind memory(argmem: readwrite) uwtable
define range(i64 0, 4294967296) i64 @SPARC_Convert(ptr noundef captures(none) %0, i64 noundef %1, i32 noundef %2, i32 noundef %3) local_unnamed_addr #0 {
  %5 = icmp ult i64 %1, 4
  br i1 %5, label %.loopexit, label %6

6:                                                ; preds = %4
  %7 = add i64 %1, -4
  %.not49 = icmp eq i32 %3, 0
  br i1 %.not49, label %.split.us, label %.split

.split.us:                                        ; preds = %6, %.thread.us
  %8 = phi i64 [ %61, %.thread.us ], [ 0, %6 ]
  %.04550.us = phi i32 [ %60, %.thread.us ], [ 0, %6 ]
  %9 = getelementptr inbounds nuw i8, ptr %0, i64 %8
  %10 = load i8, ptr %9, align 1, !tbaa !3
  switch i8 %10, label %.thread.us [
    i8 64, label %17
    i8 127, label %11
  ]

11:                                               ; preds = %.split.us
  %12 = or disjoint i32 %.04550.us, 1
  %13 = zext i32 %12 to i64
  %14 = getelementptr inbounds nuw i8, ptr %0, i64 %13
  %15 = load i8, ptr %14, align 1, !tbaa !3
  %16 = icmp ugt i8 %15, -65
  br i1 %16, label %23, label %.thread.us

17:                                               ; preds = %.split.us
  %18 = or disjoint i32 %.04550.us, 1
  %19 = zext i32 %18 to i64
  %20 = getelementptr inbounds nuw i8, ptr %0, i64 %19
  %21 = load i8, ptr %20, align 1, !tbaa !3
  %22 = icmp ult i8 %21, 64
  br i1 %22, label %23, label %.thread.us

23:                                               ; preds = %17, %11
  %24 = phi i8 [ %21, %17 ], [ %15, %11 ]
  %.pre-phi53 = phi i64 [ %19, %17 ], [ %13, %11 ]
  %25 = zext nneg i8 %10 to i32
  %26 = shl nuw nsw i32 %25, 24
  %27 = getelementptr inbounds nuw i8, ptr %0, i64 %.pre-phi53
  %28 = zext i8 %24 to i32
  %29 = shl nuw nsw i32 %28, 16
  %30 = or disjoint i32 %29, %26
  %31 = or disjoint i32 %.04550.us, 2
  %32 = zext i32 %31 to i64
  %33 = getelementptr inbounds nuw i8, ptr %0, i64 %32
  %34 = load i8, ptr %33, align 1, !tbaa !3
  %35 = zext i8 %34 to i32
  %36 = shl nuw nsw i32 %35, 8
  %37 = or disjoint i32 %30, %36
  %38 = or disjoint i32 %.04550.us, 3
  %39 = zext i32 %38 to i64
  %40 = getelementptr inbounds nuw i8, ptr %0, i64 %39
  %41 = load i8, ptr %40, align 1, !tbaa !3
  %42 = zext i8 %41 to i32
  %43 = or disjoint i32 %37, %42
  %44 = shl i32 %43, 2
  %45 = add i32 %.04550.us, %2
  %.0.us = sub i32 %44, %45
  %46 = lshr i32 %.0.us, 2
  %47 = shl i32 %.0.us, 7
  %48 = ashr i32 %47, 9
  %49 = and i32 %48, 1069547520
  %50 = and i32 %46, 4128768
  %51 = or disjoint i32 %49, %50
  %52 = lshr i32 %49, 24
  %53 = trunc nuw nsw i32 %52 to i8
  %54 = or disjoint i8 %53, 64
  store i8 %54, ptr %9, align 1, !tbaa !3
  %55 = lshr exact i32 %51, 16
  %56 = trunc i32 %55 to i8
  store i8 %56, ptr %27, align 1, !tbaa !3
  %57 = lshr i32 %.0.us, 10
  %58 = trunc i32 %57 to i8
  store i8 %58, ptr %33, align 1, !tbaa !3
  %59 = trunc i32 %46 to i8
  store i8 %59, ptr %40, align 1, !tbaa !3
  br label %.thread.us

.thread.us:                                       ; preds = %23, %17, %11, %.split.us
  %60 = add i32 %.04550.us, 4
  %61 = zext i32 %60 to i64
  %.not.us = icmp ult i64 %7, %61
  br i1 %.not.us, label %.loopexit, label %.split.us

.split:                                           ; preds = %6, %.thread
  %62 = phi i64 [ %115, %.thread ], [ 0, %6 ]
  %.04550 = phi i32 [ %114, %.thread ], [ 0, %6 ]
  %63 = getelementptr inbounds nuw i8, ptr %0, i64 %62
  %64 = load i8, ptr %63, align 1, !tbaa !3
  switch i8 %64, label %.thread [
    i8 64, label %65
    i8 127, label %71
  ]

65:                                               ; preds = %.split
  %66 = or disjoint i32 %.04550, 1
  %67 = zext i32 %66 to i64
  %68 = getelementptr inbounds nuw i8, ptr %0, i64 %67
  %69 = load i8, ptr %68, align 1, !tbaa !3
  %70 = icmp ult i8 %69, 64
  br i1 %70, label %77, label %.thread

71:                                               ; preds = %.split
  %72 = or disjoint i32 %.04550, 1
  %73 = zext i32 %72 to i64
  %74 = getelementptr inbounds nuw i8, ptr %0, i64 %73
  %75 = load i8, ptr %74, align 1, !tbaa !3
  %76 = icmp ugt i8 %75, -65
  br i1 %76, label %77, label %.thread

77:                                               ; preds = %71, %65
  %78 = phi i8 [ %75, %71 ], [ %69, %65 ]
  %.pre-phi = phi i64 [ %73, %71 ], [ %67, %65 ]
  %79 = zext nneg i8 %64 to i32
  %80 = shl nuw nsw i32 %79, 24
  %81 = getelementptr inbounds nuw i8, ptr %0, i64 %.pre-phi
  %82 = zext i8 %78 to i32
  %83 = shl nuw nsw i32 %82, 16
  %84 = or disjoint i32 %83, %80
  %85 = or disjoint i32 %.04550, 2
  %86 = zext i32 %85 to i64
  %87 = getelementptr inbounds nuw i8, ptr %0, i64 %86
  %88 = load i8, ptr %87, align 1, !tbaa !3
  %89 = zext i8 %88 to i32
  %90 = shl nuw nsw i32 %89, 8
  %91 = or disjoint i32 %84, %90
  %92 = or disjoint i32 %.04550, 3
  %93 = zext i32 %92 to i64
  %94 = getelementptr inbounds nuw i8, ptr %0, i64 %93
  %95 = load i8, ptr %94, align 1, !tbaa !3
  %96 = zext i8 %95 to i32
  %97 = or disjoint i32 %91, %96
  %98 = shl i32 %97, 2
  %99 = add i32 %.04550, %2
  %.0 = add i32 %98, %99
  %100 = lshr i32 %.0, 2
  %101 = shl i32 %.0, 7
  %102 = ashr i32 %101, 9
  %103 = and i32 %102, 1069547520
  %104 = and i32 %100, 4128768
  %105 = or disjoint i32 %103, %104
  %106 = lshr i32 %103, 24
  %107 = trunc nuw nsw i32 %106 to i8
  %108 = or disjoint i8 %107, 64
  store i8 %108, ptr %63, align 1, !tbaa !3
  %109 = lshr exact i32 %105, 16
  %110 = trunc i32 %109 to i8
  store i8 %110, ptr %81, align 1, !tbaa !3
  %111 = lshr i32 %.0, 10
  %112 = trunc i32 %111 to i8
  store i8 %112, ptr %87, align 1, !tbaa !3
  %113 = trunc i32 %100 to i8
  store i8 %113, ptr %94, align 1, !tbaa !3
  br label %.thread

.thread:                                          ; preds = %.split, %65, %71, %77
  %114 = add i32 %.04550, 4
  %115 = zext i32 %114 to i64
  %.not = icmp ult i64 %7, %115
  br i1 %.not, label %.loopexit, label %.split

.loopexit:                                        ; preds = %.thread, %.thread.us, %4
  %.046 = phi i64 [ 0, %4 ], [ %61, %.thread.us ], [ %115, %.thread ]
  ret i64 %.046
}